target datalayout = "e-m:e-p270:32:32-p271:32:32-p272:64:64-i64:64-i128:128-f80:128-n8:16:32:64-S128"
target triple = "x86_64-pc-linux-gnu"

%struct.ELBGContext = type { i32, i32, i32, ptr, ptr, ptr, ptr, ptr, ptr, ptr, ptr, ptr, ptr, ptr, i32, i32, i32, i32, i32, i32, i32 }

; Function Attrs: nounwind uwtable
define internal void @init_elbg(ptr noalias noundef %0, ptr noundef %1, ptr noundef %2, i32 noundef %3, i32 noundef %4) #0 {
  %6 = alloca ptr, align 8
  %7 = alloca ptr, align 8
  %8 = alloca ptr, align 8
  %9 = alloca i32, align 4
  %10 = alloca i32, align 4
  %11 = alloca i32, align 4
  %12 = alloca i32, align 4
  %13 = alloca i32, align 4
  %14 = alloca i32, align 4
  store ptr %0, ptr %6, align 8, !tbaa !18
  store ptr %1, ptr %7, align 8, !tbaa !10
  store ptr %2, ptr %8, align 8, !tbaa !10
  store i32 %3, ptr %9, align 4, !tbaa !12
  store i32 %4, ptr %10, align 4, !tbaa !12
  call void @llvm.lifetime.start.p0(i64 4, ptr %11) #7
  %15 = load ptr, ptr %6, align 8, !tbaa !18
  %16 = getelementptr inbounds nuw %struct.ELBGContext, ptr %15, i32 0, i32 1
  %17 = load i32, ptr %16, align 4, !tbaa !27
  store i32 %17, ptr %11, align 4, !tbaa !12
  %18 = load i32, ptr %9, align 4, !tbaa !12
  %19 = sext i32 %18 to i64
  %20 = load ptr, ptr %6, align 8, !tbaa !18
  %21 = getelementptr inbounds nuw %struct.ELBGContext, ptr %20, i32 0, i32 2
  %22 = load i32, ptr %21, align 8, !tbaa !26
  %23 = sext i32 %22 to i64
  %24 = mul nsw i64 24, %23
  %25 = icmp sgt i64 %19, %24
  br i1 %25, label %26, label %79

26:                                               ; preds = %5
  call void @llvm.lifetime.start.p0(i64 4, ptr %12) #7
  store i32 0, ptr %12, align 4, !tbaa !12
  br label %27

27:                                               ; preds = %56, %26
  %28 = load i32, ptr %12, align 4, !tbaa !12
  %29 = load i32, ptr %9, align 4, !tbaa !12
  %30 = sdiv i32 %29, 8
  %31 = icmp slt i32 %28, %30
  br i1 %31, label %33, label %32

32:                                               ; preds = %27
  call void @llvm.lifetime.end.p0(i64 4, ptr %12) #7
  br label %59

33:                                               ; preds = %27
  call void @llvm.lifetime.start.p0(i64 4, ptr %13) #7
  %34 = load i32, ptr %12, align 4, !tbaa !12
  %35 = sext i32 %34 to i64
  %36 = mul nsw i64 %35, 433494437
  %37 = load i32, ptr %9, align 4, !tbaa !12
  %38 = sext i32 %37 to i64
  %39 = srem i64 %36, %38
  %40 = trunc i64 %39 to i32
  store i32 %40, ptr %13, align 4, !tbaa !12
  %41 = load ptr, ptr %8, align 8, !tbaa !10
  %42 = load i32, ptr %12, align 4, !tbaa !12
  %43 = load i32, ptr %11, align 4, !tbaa !12
  %44 = mul nsw i32 %42, %43
  %45 = sext i32 %44 to i64
  %46 = getelementptr inbounds i32, ptr %41, i64 %45
  %47 = load ptr, ptr %7, align 8, !tbaa !10
  %48 = load i32, ptr %13, align 4, !tbaa !12
  %49 = load i32, ptr %11, align 4, !tbaa !12
  %50 = mul nsw i32 %48, %49
  %51 = sext i32 %50 to i64
  %52 = getelementptr inbounds i32, ptr %47, i64 %51
  %53 = load i32, ptr %11, align 4, !tbaa !12
  %54 = sext i32 %53 to i64
  %55 = mul i64 %54, 4
  call void @llvm.memcpy.p0.p0.i64(ptr align 4 %46, ptr align 4 %52, i64 %55, i1 false)
  call void @llvm.lifetime.end.p0(i64 4, ptr %13) #7
  br label %56

56:                                               ; preds = %33
  %57 = load i32, ptr %12, align 4, !tbaa !12
  %58 = add nsw i32 %57, 1
  store i32 %58, ptr %12, align 4, !tbaa !12
  br label %27, !llvm.loop !42

59:                                               ; preds = %32
  %60 = load ptr, ptr %6, align 8, !tbaa !18
  %61 = load ptr, ptr %8, align 8, !tbaa !10
  %62 = load ptr, ptr %8, align 8, !tbaa !10
  %63 = load i32, ptr %9, align 4, !tbaa !12
  %64 = sdiv i32 %63, 8
  %65 = load i32, ptr %11, align 4, !tbaa !12
  %66 = mul nsw i32 %64, %65
  %67 = sext i32 %66 to i64
  %68 = getelementptr inbounds i32, ptr %62, i64 %67
  %69 = load i32, ptr %9, align 4, !tbaa !12
  %70 = sdiv i32 %69, 8
  %71 = load i32, ptr %10, align 4, !tbaa !12
  %72 = mul nsw i32 2, %71
  call void @init_elbg(ptr noundef %60, ptr noundef %61, ptr noundef %68, i32 noundef %70, i32 noundef %72)
  %73 = load ptr, ptr %6, align 8, !tbaa !18
  %74 = load ptr, ptr %8, align 8, !tbaa !10
  %75 = load i32, ptr %9, align 4, !tbaa !12
  %76 = sdiv i32 %75, 8
  %77 = load i32, ptr %10, align 4, !tbaa !12
  %78 = mul nsw i32 2, %77
  call void @do_elbg(ptr noundef %73, ptr noundef %74, i32 noundef %76, i32 noundef %78)
  br label %114

79:                                               ; preds = %5
  call void @llvm.lifetime.start.p0(i64 4, ptr %14) #7
  store i32 0, ptr %14, align 4, !tbaa !12
  br label %80

80:                                               ; preds = %110, %79
  %81 = load i32, ptr %14, align 4, !tbaa !12
  %82 = load ptr, ptr %6, align 8, !tbaa !18
  %83 = getelementptr inbounds nuw %struct.ELBGContext, ptr %82, i32 0, i32 2
  %84 = load i32, ptr %83, align 8, !tbaa !26
  %85 = icmp slt i32 %81, %84
  br i1 %85, label %87, label %86

86:                                               ; preds = %80
  call void @llvm.lifetime.end.p0(i64 4, ptr %14) #7
  br label %113

87:                                               ; preds = %80
  %88 = load ptr, ptr %6, align 8, !tbaa !18
  %89 = getelementptr inbounds nuw %struct.ELBGContext, ptr %88, i32 0, i32 3
  %90 = load ptr, ptr %89, align 8, !tbaa !25
  %91 = load i32, ptr %14, align 4, !tbaa !12
  %92 = load i32, ptr %11, align 4, !tbaa !12
  %93 = mul nsw i32 %91, %92
  %94 = sext i32 %93 to i64
  %95 = getelementptr inbounds i32, ptr %90, i64 %94
  %96 = load ptr, ptr %7, align 8, !tbaa !10
  %97 = load i32, ptr %14, align 4, !tbaa !12
  %98 = sext i32 %97 to i64
  %99 = mul nsw i64 %98, 433494437
  %100 = load i32, ptr %9, align 4, !tbaa !12
  %101 = sext i32 %100 to i64
  %102 = srem i64 %99, %101
  %103 = load i32, ptr %11, align 4, !tbaa !12
  %104 = sext i32 %103 to i64
  %105 = mul nsw i64 %102, %104
  %106 = getelementptr inbounds i32, ptr %96, i64 %105
  %107 = load i32, ptr %11, align 4, !tbaa !12
  %108 = sext i32 %107 to i64
  %109 = mul i64 %108, 4
  call void @llvm.memcpy.p0.p0.i64(ptr align 4 %95, ptr align 4 %106, i64 %109, i1 false)
  br label %110

110:                                              ; preds = %87
  %111 = load i32, ptr %14, align 4, !tbaa !12
  %112 = add nsw i32 %111, 1
  store i32 %112, ptr %14, align 4, !tbaa !12
  br label %80, !llvm.loop !44

113:                                              ; preds = %86
  br label %114

114:                                              ; preds = %113, %59
  call void @llvm.lifetime.end.p0(i64 4, ptr %11) #7
  ret void
}