; Function Attrs: nofree nosync nounwind memory(readwrite, inaccessiblemem: none) uwtable
define internal fastcc void @init_elbg(ptr noalias noundef nonnull captures(none) %0, ptr noundef readonly captures(none) %1, ptr noundef %2, i32 noundef %3, i32 noundef %4) unnamed_addr #3 {
  %6 = getelementptr inbounds nuw i8, ptr %0, i64 4
  %7 = load i32, ptr %6, align 4, !tbaa !20
  %8 = sext i32 %3 to i64
  %9 = getelementptr inbounds nuw i8, ptr %0, i64 8
  %10 = load i32, ptr %9, align 8, !tbaa !19
  %11 = sext i32 %10 to i64
  %12 = mul nsw i64 %11, 24
  %13 = icmp slt i64 %12, %8
  br i1 %13, label %.preheader, label %.preheader39

.preheader39:                                     ; preds = %5
  %14 = icmp sgt i32 %10, 0
  br i1 %14, label %.lr.ph, label %common.ret49

.lr.ph:                                           ; preds = %.preheader39
  %15 = getelementptr inbounds nuw i8, ptr %0, i64 16
  %16 = load ptr, ptr %15, align 8, !tbaa !18
  %17 = sext i32 %7 to i64
  %18 = shl nsw i64 %17, 2
  %wide.trip.count = zext nneg i32 %10 to i64
  br label %36

.preheader:                                       ; preds = %5
  %19 = sdiv i32 %3, 8
  %20 = icmp sgt i32 %3, 7
  br i1 %20, label %.lr.ph42, label %._crit_edge

.lr.ph42:                                         ; preds = %.preheader
  %21 = sext i32 %7 to i64
  %22 = shl nsw i64 %21, 2
  %wide.trip.count47 = zext nneg i32 %19 to i64
  br label %27

common.ret49:                                     ; preds = %.preheader39, %36, %._crit_edge
  ret void

._crit_edge:                                      ; preds = %27, %.preheader
  %23 = mul nsw i32 %7, %19
  %24 = sext i32 %23 to i64
  %25 = getelementptr inbounds i32, ptr %2, i64 %24
  %26 = shl nsw i32 %4, 1
  tail call fastcc void @init_elbg(ptr noundef %0, ptr noundef %2, ptr noundef %25, i32 noundef %19, i32 noundef %26)
  tail call fastcc void @do_elbg(ptr noundef %0, ptr noundef %2, i32 noundef %19, i32 noundef %26)
  br label %common.ret49

27:                                               ; preds = %.lr.ph42, %27
  %indvars.iv44 = phi i64 [ 0, %.lr.ph42 ], [ %indvars.iv.next45, %27 ]
  %28 = mul nuw nsw i64 %indvars.iv44, 433494437
  %29 = urem i64 %28, %8
  %30 = trunc nuw nsw i64 %29 to i32
  %31 = mul nsw i64 %indvars.iv44, %21
  %32 = getelementptr inbounds i32, ptr %2, i64 %31
  %33 = mul nsw i32 %7, %30
  %34 = sext i32 %33 to i64
  %35 = getelementptr inbounds i32, ptr %1, i64 %34
  tail call void @llvm.memcpy.p0.p0.i64(ptr align 4 %32, ptr align 4 %35, i64 %22, i1 false)
  %indvars.iv.next45 = add nuw nsw i64 %indvars.iv44, 1
  %exitcond48.not = icmp eq i64 %indvars.iv.next45, %wide.trip.count47
  br i1 %exitcond48.not, label %._crit_edge, label %27, !llvm.loop !35

36:                                               ; preds = %.lr.ph, %36
  %indvars.iv = phi i64 [ 0, %.lr.ph ], [ %indvars.iv.next, %36 ]
  %37 = mul nsw i64 %indvars.iv, %17
  %38 = getelementptr inbounds i32, ptr %16, i64 %37
  %39 = mul nuw nsw i64 %indvars.iv, 433494437
  %40 = srem i64 %39, %8
  %41 = mul nsw i64 %40, %17
  %42 = getelementptr inbounds i32, ptr %1, i64 %41
  tail call void @llvm.memcpy.p0.p0.i64(ptr align 4 %38, ptr align 4 %42, i64 %18, i1 false)
  %indvars.iv.next = add nuw nsw i64 %indvars.iv, 1
  %exitcond.not = icmp eq i64 %indvars.iv.next, %wide.trip.count
  br i1 %exitcond.not, label %common.ret49, label %36, !llvm.loop !37
}